target datalayout = "e-m:e-p270:32:32-p271:32:32-p272:64:64-i64:64-i128:128-f80:128-n8:16:32:64-S128"
target triple = "x86_64-pc-linux-gnu"

%union.pthread_mutex_t = type { %struct.__pthread_mutex_s }
%struct.__pthread_mutex_s = type { i32, i32, i32, i32, i32, i16, i16, %struct.__pthread_internal_list }
%struct.__pthread_internal_list = type { ptr, ptr }
%struct.sackd_node_t = type { ptr, ptr, i64, i16 }

@sackd_lock = internal global %union.pthread_mutex_t zeroinitializer, align 8
@.str = private unnamed_addr constant [29 x i8] c"%s: pthread_mutex_lock(): %m\00", align 1
@sackd_nodes = internal global ptr null, align 8
@.str.2 = private unnamed_addr constant [31 x i8] c"%s: pthread_mutex_unlock(): %m\00", align 1
@__func__.sackd_mgr_add_node = private unnamed_addr constant [19 x i8] c"sackd_mgr_add_node\00", align 1
@.str.5 = private unnamed_addr constant [36 x i8] c"%s: updating existing record for %s\00", align 1
@.str.6 = private unnamed_addr constant [25 x i8] c"%s: adding record for %s\00", align 1
@.str.7 = private unnamed_addr constant [12 x i8] c"sackd_mgr.c\00", align 1

; Function Attrs: nounwind uwtable
define dso_local void @sackd_mgr_add_node(ptr noundef %0) #0 {
  %2 = alloca ptr, align 8
  %3 = alloca ptr, align 8
  %4 = alloca ptr, align 8
  %5 = alloca i32, align 4
  %6 = alloca i32, align 4
  store ptr %0, ptr %2, align 8
  call void @llvm.lifetime.start.p0(i64 8, ptr %3) #7
  store ptr null, ptr %3, align 8
  call void @llvm.lifetime.start.p0(i64 8, ptr %4) #7
  %7 = load ptr, ptr %2, align 8
  %8 = call ptr @auth_g_get_host(ptr noundef %7)
  store ptr %8, ptr %4, align 8
  br label %9

9:                                                ; preds = %1
  call void @llvm.lifetime.start.p0(i64 4, ptr %5) #7
  %10 = call i32 @pthread_mutex_lock(ptr noundef @sackd_lock) #7
  store i32 %10, ptr %5, align 4
  %11 = load i32, ptr %5, align 4
  %12 = icmp ne i32 %11, 0
  br i1 %12, label %13, label %16

13:                                               ; preds = %9
  %14 = load i32, ptr %5, align 4
  %15 = call ptr @__errno_location() #8
  store i32 %14, ptr %15, align 4
  call void (ptr, ...) @fatal_abort(ptr noundef @.str, ptr noundef @__func__.sackd_mgr_add_node) #9
  unreachable

16:                                               ; preds = %9
  call void @llvm.lifetime.end.p0(i64 4, ptr %5) #7
  br label %17

17:                                               ; preds = %16
  br label %18

18:                                               ; preds = %17
  %19 = load ptr, ptr @sackd_nodes, align 8
  %20 = icmp ne ptr %19, null
  br i1 %20, label %23, label %21

21:                                               ; preds = %18
  %22 = call ptr @list_create(ptr noundef @_destroy_sackd_node)
  store ptr %22, ptr @sackd_nodes, align 8
  br label %23

23:                                               ; preds = %21, %18
  %24 = load ptr, ptr @sackd_nodes, align 8
  %25 = load ptr, ptr %4, align 8
  %26 = call ptr @list_find_first(ptr noundef %24, ptr noundef @_find_sackd_node, ptr noundef %25)
  store ptr %26, ptr %3, align 8
  %27 = icmp ne ptr %26, null
  br i1 %27, label %28, label %42

28:                                               ; preds = %23
  br label %29

29:                                               ; preds = %28
  br label %30

30:                                               ; preds = %29
  %31 = call i32 @get_log_level()
  %32 = icmp sge i32 %31, 5
  br i1 %32, label %33, label %35

33:                                               ; preds = %30
  %34 = load ptr, ptr %4, align 8
  call void (i32, ptr, ...) @log_var(i32 noundef 5, ptr noundef @.str.5, ptr noundef @__func__.sackd_mgr_add_node, ptr noundef %34)
  br label %35

35:                                               ; preds = %33, %30
  br label %36

36:                                               ; preds = %35
  br label %37

37:                                               ; preds = %36
  br label %38

38:                                               ; preds = %37
  br label %39

39:                                               ; preds = %38
  %40 = load ptr, ptr %3, align 8
  %41 = load ptr, ptr %2, align 8
  call void @_update_sackd_node(ptr noundef %40, ptr noundef %41)
  call void @slurm_xfree(ptr noundef %4)
  br label %62

42:                                               ; preds = %23
  br label %43

43:                                               ; preds = %42
  br label %44

44:                                               ; preds = %43
  %45 = call i32 @get_log_level()
  %46 = icmp sge i32 %45, 5
  br i1 %46, label %47, label %49

47:                                               ; preds = %44
  %48 = load ptr, ptr %4, align 8
  call void (i32, ptr, ...) @log_var(i32 noundef 5, ptr noundef @.str.6, ptr noundef @__func__.sackd_mgr_add_node, ptr noundef %48)
  br label %49

49:                                               ; preds = %47, %44
  br label %50

50:                                               ; preds = %49
  br label %51

51:                                               ; preds = %50
  br label %52

52:                                               ; preds = %51
  br label %53

53:                                               ; preds = %52
  %54 = call ptr @slurm_xcalloc(i64 noundef 1, i64 noundef 32, i1 noundef zeroext true, i1 noundef zeroext false, ptr noundef @.str.7, i32 noundef 175, ptr noundef @__func__.sackd_mgr_add_node)
  store ptr %54, ptr %3, align 8
  %55 = load ptr, ptr %4, align 8
  %56 = load ptr, ptr %3, align 8
  %57 = getelementptr inbounds nuw %struct.sackd_node_t, ptr %56, i32 0, i32 0
  store ptr %55, ptr %57, align 8
  %58 = load ptr, ptr %3, align 8
  %59 = load ptr, ptr %2, align 8
  call void @_update_sackd_node(ptr noundef %58, ptr noundef %59)
  %60 = load ptr, ptr @sackd_nodes, align 8
  %61 = load ptr, ptr %3, align 8
  call void @list_append(ptr noundef %60, ptr noundef %61)
  br label %62

62:                                               ; preds = %53, %39
  br label %63

63:                                               ; preds = %62
  call void @llvm.lifetime.start.p0(i64 4, ptr %6) #7
  %64 = call i32 @pthread_mutex_unlock(ptr noundef @sackd_lock) #7
  store i32 %64, ptr %6, align 4
  %65 = load i32, ptr %6, align 4
  %66 = icmp ne i32 %65, 0
  br i1 %66, label %67, label %70

67:                                               ; preds = %63
  %68 = load i32, ptr %6, align 4
  %69 = call ptr @__errno_location() #8
  store i32 %68, ptr %69, align 4
  call void (ptr, ...) @fatal_abort(ptr noundef @.str.2, ptr noundef @__func__.sackd_mgr_add_node) #9
  unreachable

70:                                               ; preds = %63
  call void @llvm.lifetime.end.p0(i64 4, ptr %6) #7
  br label %71

71:                                               ; preds = %70
  br label %72

72:                                               ; preds = %71
  call void @llvm.lifetime.end.p0(i64 8, ptr %4) #7
  call void @llvm.lifetime.end.p0(i64 8, ptr %3) #7
  ret void
}