; Function Attrs: nounwind uwtable
define dso_local void @sackd_mgr_add_node(ptr noundef %0) local_unnamed_addr #0 {
  %2 = alloca ptr, align 8
  call void @llvm.lifetime.start.p0(i64 8, ptr nonnull %2) #7
  %3 = tail call ptr @auth_g_get_host(ptr noundef %0) #7
  store ptr %3, ptr %2, align 8
  %4 = tail call i32 @pthread_mutex_lock(ptr noundef nonnull @sackd_lock) #7
  %.not = icmp eq i32 %4, 0
  br i1 %.not, label %7, label %5

5:                                                ; preds = %1
  %6 = tail call ptr @__errno_location() #8
  store i32 %4, ptr %6, align 4
  tail call void (ptr, ...) @fatal_abort(ptr noundef nonnull @.str, ptr noundef nonnull @__func__.sackd_mgr_add_node) #9
  unreachable

7:                                                ; preds = %1
  %8 = load ptr, ptr @sackd_nodes, align 8
  %.not12 = icmp eq ptr %8, null
  br i1 %.not12, label %9, label %11

9:                                                ; preds = %7
  %10 = tail call ptr @list_create(ptr noundef nonnull @_destroy_sackd_node) #7
  store ptr %10, ptr @sackd_nodes, align 8
  br label %11

11:                                               ; preds = %9, %7
  %12 = phi ptr [ %10, %9 ], [ %8, %7 ]
  %13 = tail call ptr @list_find_first(ptr noundef %12, ptr noundef nonnull @_find_sackd_node, ptr noundef %3) #7
  %.not13 = icmp eq ptr %13, null
  %14 = tail call i32 @get_log_level() #7
  %15 = icmp sgt i32 %14, 4
  br i1 %.not13, label %19, label %16

16:                                               ; preds = %11
  br i1 %15, label %17, label %18

17:                                               ; preds = %16
  tail call void (i32, ptr, ...) @log_var(i32 noundef 5, ptr noundef nonnull @.str.5, ptr noundef nonnull @__func__.sackd_mgr_add_node, ptr noundef %3) #7
  br label %18

18:                                               ; preds = %17, %16
  tail call fastcc void @_update_sackd_node(ptr noundef nonnull %13, ptr noundef %0)
  call void @slurm_xfree(ptr noundef nonnull %2) #7
  br label %24

19:                                               ; preds = %11
  br i1 %15, label %20, label %21

20:                                               ; preds = %19
  tail call void (i32, ptr, ...) @log_var(i32 noundef 5, ptr noundef nonnull @.str.6, ptr noundef nonnull @__func__.sackd_mgr_add_node, ptr noundef %3) #7
  br label %21

21:                                               ; preds = %20, %19
  %22 = tail call ptr @slurm_xcalloc(i64 noundef 1, i64 noundef 32, i1 noundef zeroext true, i1 noundef zeroext false, ptr noundef nonnull @.str.7, i32 noundef 175, ptr noundef nonnull @__func__.sackd_mgr_add_node) #7
  store ptr %3, ptr %22, align 8
  tail call fastcc void @_update_sackd_node(ptr noundef nonnull %22, ptr noundef %0)
  %23 = load ptr, ptr @sackd_nodes, align 8
  tail call void @list_append(ptr noundef %23, ptr noundef nonnull %22) #7
  br label %24

24:                                               ; preds = %18, %21
  %25 = call i32 @pthread_mutex_unlock(ptr noundef nonnull @sackd_lock) #7
  %.not14 = icmp eq i32 %25, 0
  br i1 %.not14, label %28, label %26

26:                                               ; preds = %24
  %27 = tail call ptr @__errno_location() #8
  store i32 %25, ptr %27, align 4
  call void (ptr, ...) @fatal_abort(ptr noundef nonnull @.str.2, ptr noundef nonnull @__func__.sackd_mgr_add_node) #9
  unreachable

28:                                               ; preds = %24
  call void @llvm.lifetime.end.p0(i64 8, ptr nonnull %2) #7
  ret void
}